; Function Attrs: mustprogress nofree norecurse nosync nounwind willreturn memory(argmem: read) uwtable
define internal range(i32 0, 63) i32 @big2_predefinedEntityName(ptr readnone captures(none) %0, ptr noundef %1, ptr noundef %2) #8 {
  %4 = ptrtoint ptr %2 to i64
  %5 = ptrtoint ptr %1 to i64
  %6 = sub i64 %4, %5
  %7 = sdiv i64 %6, 2
  switch i64 %7, label %.thread42 [
    i64 2, label %8
    i64 3, label %22
    i64 4, label %45
  ]

8:                                                ; preds = %3
  %9 = getelementptr inbounds nuw i8, ptr %1, i64 2
  %10 = load i8, ptr %9, align 1, !tbaa !9
  %11 = icmp eq i8 %10, 0
  br i1 %11, label %12, label %.thread42

12:                                               ; preds = %8
  %13 = getelementptr inbounds nuw i8, ptr %1, i64 3
  %14 = load i8, ptr %13, align 1, !tbaa !9
  %15 = icmp eq i8 %14, 116
  br i1 %15, label %16, label %.thread42

16:                                               ; preds = %12
  %17 = load i8, ptr %1, align 1, !tbaa !9
  %18 = icmp eq i8 %17, 0
  br i1 %18, label %19, label %.thread39

19:                                               ; preds = %16
  %20 = getelementptr inbounds nuw i8, ptr %1, i64 1
  %21 = load i8, ptr %20, align 1, !tbaa !9
  %.fr = freeze i8 %21
  %switch.selectcmp = icmp eq i8 %.fr, 103
  %spec.select = select i1 %switch.selectcmp, i32 62, i32 0
  %switch.selectcmp34 = icmp eq i8 %.fr, 108
  %spec.select43 = select i1 %switch.selectcmp34, i32 60, i32 %spec.select
  br label %.thread39

22:                                               ; preds = %3
  %23 = load i8, ptr %1, align 1, !tbaa !9
  %24 = icmp eq i8 %23, 0
  br i1 %24, label %25, label %.thread42

25:                                               ; preds = %22
  %26 = getelementptr inbounds nuw i8, ptr %1, i64 1
  %27 = load i8, ptr %26, align 1, !tbaa !9
  %28 = icmp eq i8 %27, 97
  br i1 %28, label %29, label %.thread42

29:                                               ; preds = %25
  %30 = getelementptr inbounds nuw i8, ptr %1, i64 2
  %31 = load i8, ptr %30, align 1, !tbaa !9
  %32 = icmp eq i8 %31, 0
  br i1 %32, label %33, label %.thread42

33:                                               ; preds = %29
  %34 = getelementptr inbounds nuw i8, ptr %1, i64 3
  %35 = load i8, ptr %34, align 1, !tbaa !9
  %36 = icmp eq i8 %35, 109
  br i1 %36, label %37, label %.thread42

37:                                               ; preds = %33
  %38 = getelementptr inbounds nuw i8, ptr %1, i64 4
  %39 = load i8, ptr %38, align 1, !tbaa !9
  %40 = icmp eq i8 %39, 0
  br i1 %40, label %41, label %.thread42

41:                                               ; preds = %37
  %42 = getelementptr inbounds nuw i8, ptr %1, i64 5
  %43 = load i8, ptr %42, align 1, !tbaa !9
  %44 = icmp eq i8 %43, 112
  br i1 %44, label %.thread39, label %.thread42

45:                                               ; preds = %3
  %46 = load i8, ptr %1, align 1, !tbaa !9
  %47 = icmp eq i8 %46, 0
  br i1 %47, label %48, label %.thread42

48:                                               ; preds = %45
  %49 = getelementptr inbounds nuw i8, ptr %1, i64 1
  %50 = load i8, ptr %49, align 1, !tbaa !9
  switch i8 %50, label %.thread42 [
    i8 113, label %51
    i8 97, label %75
  ]

51:                                               ; preds = %48
  %52 = getelementptr inbounds nuw i8, ptr %1, i64 2
  %53 = load i8, ptr %52, align 1, !tbaa !9
  %54 = icmp eq i8 %53, 0
  br i1 %54, label %55, label %.thread42

55:                                               ; preds = %51
  %56 = getelementptr inbounds nuw i8, ptr %1, i64 3
  %57 = load i8, ptr %56, align 1, !tbaa !9
  %58 = icmp eq i8 %57, 117
  br i1 %58, label %59, label %.thread42

59:                                               ; preds = %55
  %60 = getelementptr inbounds nuw i8, ptr %1, i64 4
  %61 = load i8, ptr %60, align 1, !tbaa !9
  %62 = icmp eq i8 %61, 0
  br i1 %62, label %63, label %.thread42

63:                                               ; preds = %59
  %64 = getelementptr inbounds nuw i8, ptr %1, i64 5
  %65 = load i8, ptr %64, align 1, !tbaa !9
  %66 = icmp eq i8 %65, 111
  br i1 %66, label %67, label %.thread42

67:                                               ; preds = %63
  %68 = getelementptr inbounds nuw i8, ptr %1, i64 6
  %69 = load i8, ptr %68, align 1, !tbaa !9
  %70 = icmp eq i8 %69, 0
  br i1 %70, label %71, label %.thread42

71:                                               ; preds = %67
  %72 = getelementptr inbounds nuw i8, ptr %1, i64 7
  %73 = load i8, ptr %72, align 1, !tbaa !9
  %74 = icmp eq i8 %73, 116
  br i1 %74, label %.thread39, label %.thread42

75:                                               ; preds = %48
  %76 = getelementptr inbounds nuw i8, ptr %1, i64 2
  %77 = load i8, ptr %76, align 1, !tbaa !9
  %78 = icmp eq i8 %77, 0
  br i1 %78, label %79, label %.thread42

79:                                               ; preds = %75
  %80 = getelementptr inbounds nuw i8, ptr %1, i64 3
  %81 = load i8, ptr %80, align 1, !tbaa !9
  %82 = icmp eq i8 %81, 112
  br i1 %82, label %83, label %.thread42

83:                                               ; preds = %79
  %84 = getelementptr inbounds nuw i8, ptr %1, i64 4
  %85 = load i8, ptr %84, align 1, !tbaa !9
  %86 = icmp eq i8 %85, 0
  br i1 %86, label %87, label %.thread42

87:                                               ; preds = %83
  %88 = getelementptr inbounds nuw i8, ptr %1, i64 5
  %89 = load i8, ptr %88, align 1, !tbaa !9
  %90 = icmp eq i8 %89, 111
  br i1 %90, label %91, label %.thread42

91:                                               ; preds = %87
  %92 = getelementptr inbounds nuw i8, ptr %1, i64 6
  %93 = load i8, ptr %92, align 1, !tbaa !9
  %94 = icmp eq i8 %93, 0
  br i1 %94, label %95, label %.thread42

95:                                               ; preds = %91
  %96 = getelementptr inbounds nuw i8, ptr %1, i64 7
  %97 = load i8, ptr %96, align 1, !tbaa !9
  %98 = icmp eq i8 %97, 115
  br i1 %98, label %.thread39, label %.thread42

.thread42:                                        ; preds = %45, %48, %59, %63, %71, %67, %55, %51, %83, %87, %95, %91, %79, %75, %22, %25, %37, %41, %33, %29, %8, %12, %3
  br label %.thread39

.thread39:                                        ; preds = %19, %16, %95, %71, %41, %.thread42
  %.0 = phi i32 [ 0, %.thread42 ], [ 38, %41 ], [ 34, %71 ], [ 39, %95 ], [ 0, %16 ], [ %spec.select43, %19 ]
  ret i32 %.0
}